(dp0
S'npfs_times'
p1
(lp2
F1.069108009338379
aF35.31095504760742
aF24.028344869613647
aF16.10062003135681
aF42.76201009750366
aF47.33262801170349
aF7.554253101348877
aF11.361650943756104
aF19.980939865112305
aF71.33881902694702
aF45.74065399169922
aF46.14291501045227
aF44.112107038497925
aF77.78881907463074
aF6.167417049407959
aF36.06104803085327
aF75.02336597442627
aF51.30721688270569
asS'mrmr_times'
p3
(lp4
F1.018784999847412
aF1.2012131214141846
aF1.3457221984863281
aF1.513887882232666
aF1.6773240566253662
aF1.8452649116516113
aF2.003411054611206
aF2.1592280864715576
aF2.3273119926452637
aF2.5095109939575195
aF2.674696922302246
aF2.8404829502105713
aF3.0899100303649902
aF3.175856828689575
aF3.383880853652954
aF3.5335731506347656
aF3.7527999877929688
aF3.9094619750976562
asS'enet_times'
p5
(lp6
sS'chi2_times'
p7
(lp8
F0.0028018951416015625
aF0.0037059783935546875
aF0.004706144332885742
aF0.005753993988037109
aF0.0062139034271240234
aF0.007791042327880859
aF0.008359193801879883
aF0.010141134262084961
aF0.011523008346557617
aF0.012581110000610352
aF0.013484001159667969
aF0.014441967010498047
aF0.01714491844177246
aF0.017622947692871094
aF0.020735979080200195
aF0.020121097564697266
aF0.02243518829345703
aF0.0246429443359375
asS'lasso_times'
p9
(lp10
F0.004604816436767578
aF0.32785511016845703
aF0.4194178581237793
aF0.5242478847503662
aF0.6218109130859375
aF0.7280800342559814
aF0.8333151340484619
aF0.959805965423584
aF1.1041789054870605
aF1.0944712162017822
aF1.263740062713623
aF1.3206608295440674
aF1.5297460556030273
aF1.584859848022461
aF1.9845139980316162
aF1.985764980316162
aF2.275852918624878
aF2.509136915206909
asS'jmi_times'
p11
(lp12
F1.9047801494598389
aF2.3380768299102783
aF2.6120760440826416
aF2.939678907394409
aF3.2462871074676514
aF3.5732951164245605
aF3.8741631507873535
aF4.196851015090942
aF4.489694118499756
aF4.819868087768555
aF4.614303827285767
aF5.392376899719238
aF5.822965860366821
aF5.972330093383789
aF6.187222003936768
aF6.487426042556763
aF6.773559093475342
aF7.064760208129883
asS'n_observations'
p13
I4750
s.